; Function Attrs: mustprogress nounwind uwtable
define dso_local void @_ZN5clang26ReadPCHAndPreprocessAction13ExecuteActionEv(ptr nocapture noundef nonnull readonly align 8 dereferenceable(104) %0) unnamed_addr #0 align 2 {
  %2 = alloca %"class.clang::Token", align 8
  %3 = getelementptr inbounds nuw i8, ptr %0, i64 96
  %4 = load ptr, ptr %3, align 8
  %5 = getelementptr inbounds nuw i8, ptr %4, i64 80
  %6 = load ptr, ptr %5, align 8
  tail call void @_ZN5clang12Preprocessor13IgnorePragmasEv(ptr noundef nonnull align 8 dereferenceable(3288) %6) #21
  tail call void @_ZN5clang12Preprocessor19EnterMainSourceFileEv(ptr noundef nonnull align 8 dereferenceable(3288) %6) #21
  %7 = getelementptr inbounds nuw i8, ptr %2, i64 16
  br label %8

8:                                                ; preds = %8, %1
  call void @_ZN5clang12Preprocessor3LexERNS_5TokenE(ptr noundef nonnull align 8 dereferenceable(3288) %6, ptr noundef nonnull align 8 dereferenceable(20) %2) #21
  %9 = load i16, ptr %7, align 8
  %.not = icmp eq i16 %9, 1
  br i1 %.not, label %10, label %8, !llvm.loop !7

10:                                               ; preds = %8
  ret void
}